; Function Attrs: mustprogress nounwind uwtable
define hidden noundef zeroext i1 @_ZN7Matcher21is_vshift_con_patternEP4NodeS1_(ptr nocapture noundef nonnull readnone align 8 dereferenceable(1008) %0, ptr noundef %1, ptr noundef %2) local_unnamed_addr #0 align 2 {
  %4 = icmp ne ptr %1, null
  %5 = icmp ne ptr %2, null
  %or.cond = and i1 %4, %5
  br i1 %or.cond, label %6, label %25

6:                                                ; preds = %3
  %7 = load ptr, ptr %1, align 8
  %8 = load ptr, ptr %7, align 8
  %9 = tail call noundef i32 %8(ptr noundef nonnull align 8 dereferenceable(52) %1) #15
  %10 = tail call noundef zeroext i1 @_ZN10VectorNode15is_vector_shiftEi(i32 noundef %9) #15
  br i1 %10, label %11, label %25

11:                                               ; preds = %6
  %12 = load ptr, ptr %2, align 8
  %13 = load ptr, ptr %12, align 8
  %14 = tail call noundef i32 %13(ptr noundef nonnull align 8 dereferenceable(52) %2) #15
  %15 = tail call noundef zeroext i1 @_ZN10VectorNode21is_vector_shift_countEi(i32 noundef %14) #15
  br i1 %15, label %16, label %25

16:                                               ; preds = %11
  %17 = getelementptr inbounds i8, ptr %2, i64 8
  %18 = load ptr, ptr %17, align 8
  %19 = getelementptr inbounds i8, ptr %18, i64 8
  %20 = load ptr, ptr %19, align 8
  %21 = getelementptr inbounds i8, ptr %20, i64 48
  %22 = load i32, ptr %21, align 8
  %23 = and i32 %22, 16
  %24 = icmp ne i32 %23, 0
  br label %25

25:                                               ; preds = %3, %6, %11, %16
  %.0 = phi i1 [ false, %11 ], [ false, %6 ], [ %24, %16 ], [ false, %3 ]
  ret i1 %.0
}